target datalayout = "e-m:e-p270:32:32-p271:32:32-p272:64:64-i64:64-i128:128-f80:128-n8:16:32:64-S128"
target triple = "x86_64-pc-linux-gnu"

%struct.expert_field = type { i32, i32 }

@hf_alcap_ssisu_max_sssar_fw = internal global i32 0, align 4
@hf_alcap_ssisu_max_sssar_bw = internal global i32 0, align 4
@hf_alcap_ssisu_ted = internal global i32 0, align 4
@ei_alcap_parameter_field_bad_length = internal global %struct.expert_field zeroinitializer, align 4
@ei_alcap_undecoded = internal global %struct.expert_field zeroinitializer, align 4
@.str.416 = private unnamed_addr constant [32 x i8] c"Not yet decoded: Q.2630.1 7.4.9\00", align 1

; Function Attrs: null_pointer_is_valid sspstrong uwtable
define internal ptr @dissect_fields_ssisu(ptr noundef %0, ptr noundef %1, ptr noundef %2, i32 noundef %3, i32 noundef %4, ptr noundef %5) #0 {
  %7 = alloca ptr, align 8
  %8 = alloca ptr, align 8
  %9 = alloca ptr, align 8
  %10 = alloca ptr, align 8
  %11 = alloca i32, align 4
  %12 = alloca i32, align 4
  %13 = alloca ptr, align 8
  store ptr %0, ptr %8, align 8
  store ptr %1, ptr %9, align 8
  store ptr %2, ptr %10, align 8
  store i32 %3, ptr %11, align 4
  store i32 %4, ptr %12, align 4
  store ptr %5, ptr %13, align 8
  %14 = load i32, ptr %12, align 4
  %15 = icmp ne i32 %14, 7
  br i1 %15, label %16, label %23

16:                                               ; preds = %6
  %17 = load ptr, ptr %10, align 8
  %18 = load ptr, ptr %8, align 8
  %19 = load ptr, ptr %9, align 8
  %20 = load i32, ptr %11, align 4
  %21 = load i32, ptr %12, align 4
  %22 = call ptr @proto_tree_add_expert(ptr noundef %17, ptr noundef %18, ptr noundef @ei_alcap_parameter_field_bad_length, ptr noundef %19, i32 noundef %20, i32 noundef %21)
  store ptr null, ptr %7, align 8
  br label %46

23:                                               ; preds = %6
  %24 = load ptr, ptr %10, align 8
  %25 = load i32, ptr @hf_alcap_ssisu_max_sssar_fw, align 4
  %26 = load ptr, ptr %9, align 8
  %27 = load i32, ptr %11, align 4
  %28 = call ptr @proto_tree_add_item(ptr noundef %24, i32 noundef %25, ptr noundef %26, i32 noundef %27, i32 noundef 3, i32 noundef 0)
  %29 = load ptr, ptr %10, align 8
  %30 = load i32, ptr @hf_alcap_ssisu_max_sssar_bw, align 4
  %31 = load ptr, ptr %9, align 8
  %32 = load i32, ptr %11, align 4
  %33 = add i32 %32, 3
  %34 = call ptr @proto_tree_add_item(ptr noundef %29, i32 noundef %30, ptr noundef %31, i32 noundef %33, i32 noundef 3, i32 noundef 0)
  %35 = load ptr, ptr %10, align 8
  %36 = load i32, ptr @hf_alcap_ssisu_ted, align 4
  %37 = load ptr, ptr %9, align 8
  %38 = load i32, ptr %11, align 4
  %39 = add i32 %38, 6
  %40 = call ptr @proto_tree_add_item(ptr noundef %35, i32 noundef %36, ptr noundef %37, i32 noundef %39, i32 noundef 1, i32 noundef 0)
  %41 = load ptr, ptr %10, align 8
  %42 = load ptr, ptr %8, align 8
  %43 = load ptr, ptr %9, align 8
  %44 = load i32, ptr %11, align 4
  %45 = call ptr (ptr, ptr, ptr, ptr, i32, i32, ptr, ...) @proto_tree_add_expert_format(ptr noundef %41, ptr noundef %42, ptr noundef @ei_alcap_undecoded, ptr noundef %43, i32 noundef %44, i32 noundef 7, ptr noundef @.str.416)
  store ptr null, ptr %7, align 8
  br label %46

46:                                               ; preds = %23, %16
  %47 = load ptr, ptr %7, align 8
  ret ptr %47
}