; Function Attrs: null_pointer_is_valid sspstrong uwtable
define internal noalias noundef ptr @dissect_fields_ssisu(ptr noundef %0, ptr noundef %1, ptr noundef %2, i32 noundef %3, i32 noundef %4, ptr readnone captures(none) %5) #0 {
  %.not = icmp eq i32 %4, 7
  br i1 %.not, label %9, label %7

7:                                                ; preds = %6
  %8 = tail call ptr @proto_tree_add_expert(ptr noundef %2, ptr noundef %0, ptr noundef nonnull @ei_alcap_parameter_field_bad_length, ptr noundef %1, i32 noundef %3, i32 noundef %4)
  br label %19

9:                                                ; preds = %6
  %10 = load i32, ptr @hf_alcap_ssisu_max_sssar_fw, align 4
  %11 = tail call ptr @proto_tree_add_item(ptr noundef %2, i32 noundef %10, ptr noundef %1, i32 noundef %3, i32 noundef 3, i32 noundef 0)
  %12 = load i32, ptr @hf_alcap_ssisu_max_sssar_bw, align 4
  %13 = add i32 %3, 3
  %14 = tail call ptr @proto_tree_add_item(ptr noundef %2, i32 noundef %12, ptr noundef %1, i32 noundef %13, i32 noundef 3, i32 noundef 0)
  %15 = load i32, ptr @hf_alcap_ssisu_ted, align 4
  %16 = add i32 %3, 6
  %17 = tail call ptr @proto_tree_add_item(ptr noundef %2, i32 noundef %15, ptr noundef %1, i32 noundef %16, i32 noundef 1, i32 noundef 0)
  %18 = tail call ptr (ptr, ptr, ptr, ptr, i32, i32, ptr, ...) @proto_tree_add_expert_format(ptr noundef %2, ptr noundef %0, ptr noundef nonnull @ei_alcap_undecoded, ptr noundef %1, i32 noundef %3, i32 noundef 7, ptr noundef nonnull @.str.416)
  br label %19

19:                                               ; preds = %9, %7
  ret ptr null
}